cnumpy.core.multiarray
_reconstruct
p0
(cnumpy
ndarray
p1
(I0
tp2
S'b'
p3
tp4
Rp5
(I1
(I2
tp6
cnumpy
dtype
p7
(S'S12'
p8
I0
I1
tp9
Rp10
(I3
S'|'
p11
NNNI12
I1
I0
tp12
bI00
S'other\x00\x00\x00\x00\x00\x00\x00donald_trump'
p13
tp14
b.